target datalayout = "e-m:e-p270:32:32-p271:32:32-p272:64:64-i64:64-i128:128-f80:128-n8:16:32:64-S128"
target triple = "x86_64-pc-linux-gnu"

%struct.darktable_t = type { %struct.dt_codepath_t, i32, i32, ptr, ptr, ptr, ptr, ptr, ptr, ptr, ptr, ptr, ptr, ptr, ptr, ptr, ptr, ptr, ptr, ptr, ptr, ptr, ptr, ptr, ptr, ptr, ptr, ptr, ptr, ptr, [64 x %struct.dt_pthread_mutex_t], %struct.dt_pthread_mutex_t, %struct.dt_pthread_mutex_t, %struct.dt_pthread_mutex_t, %struct.dt_pthread_mutex_t, %struct.dt_pthread_mutex_t, ptr, ptr, ptr, ptr, ptr, ptr, ptr, ptr, ptr, ptr, ptr, ptr, ptr, %struct.dt_lua_state_t, ptr, double, ptr, i32, [47 x i32], i32, i32, ptr, ptr, %struct.dt_sys_resources_t, %struct.dt_backthumb_t, %struct.dt_gimp_t }
%struct.dt_codepath_t = type { i8, [3 x i8] }
%struct.dt_pthread_mutex_t = type { %union.pthread_mutex_t }
%union.pthread_mutex_t = type { %struct.__pthread_mutex_s }
%struct.__pthread_mutex_s = type { i32, i32, i32, i32, i32, i16, i16, %struct.__pthread_internal_list }
%struct.__pthread_internal_list = type { ptr, ptr }
%struct.dt_lua_state_t = type { i32 }
%struct.dt_sys_resources_t = type { i64, i64, ptr, ptr, i32 }
%struct.dt_backthumb_t = type { double, double, i32, i32, i32, i32 }
%struct.dt_gimp_t = type { i32, ptr, ptr, i32, i32 }

@darktable = external global %struct.darktable_t, align 8
@.str.26 = private unnamed_addr constant [24 x i8] c"%s/pixmaps/idbutton.svg\00", align 1
@.str.27 = private unnamed_addr constant [27 x i8] c"%s/pixmaps/idbutton-%d.svg\00", align 1
@.str.28 = private unnamed_addr constant [5 x i8] c"logo\00", align 1
@.str.29 = private unnamed_addr constant [18 x i8] c"splashscreen-logo\00", align 1

; Function Attrs: nounwind uwtable
define internal ptr @_get_logo() #0 {
  %1 = alloca i32, align 4
  %2 = alloca ptr, align 8
  %3 = alloca ptr, align 8
  %4 = alloca ptr, align 8
  call void @llvm.lifetime.start.p0(i64 4, ptr %1) #8
  %5 = call i32 @dt_util_get_logo_season()
  store i32 %5, ptr %1, align 4, !tbaa !11
  call void @llvm.lifetime.start.p0(i64 8, ptr %2) #8
  store ptr null, ptr %2, align 8, !tbaa !13
  call void @llvm.lifetime.start.p0(i64 8, ptr %3) #8
  %6 = load i32, ptr %1, align 4, !tbaa !11
  %7 = icmp eq i32 %6, 0
  br i1 %7, label %8, label %11

8:                                                ; preds = %0
  %9 = load ptr, ptr getelementptr inbounds nuw (%struct.darktable_t, ptr @darktable, i32 0, i32 37), align 8, !tbaa !60
  %10 = call noalias ptr (ptr, ...) @g_strdup_printf(ptr noundef @.str.26, ptr noundef %9)
  br label %15

11:                                               ; preds = %0
  %12 = load ptr, ptr getelementptr inbounds nuw (%struct.darktable_t, ptr @darktable, i32 0, i32 37), align 8, !tbaa !60
  %13 = load i32, ptr %1, align 4, !tbaa !11
  %14 = call noalias ptr (ptr, ...) @g_strdup_printf(ptr noundef @.str.27, ptr noundef %12, i32 noundef %13)
  br label %15

15:                                               ; preds = %11, %8
  %16 = phi ptr [ %10, %8 ], [ %14, %11 ]
  store ptr %16, ptr %3, align 8, !tbaa !15
  call void @llvm.lifetime.start.p0(i64 8, ptr %4) #8
  %17 = load ptr, ptr %3, align 8, !tbaa !15
  %18 = call ptr @gdk_pixbuf_new_from_file_at_size(ptr noundef %17, i32 noundef 250, i32 noundef -1, ptr noundef null)
  store ptr %18, ptr %4, align 8, !tbaa !61
  %19 = load ptr, ptr %3, align 8, !tbaa !15
  call void @g_free(ptr noundef %19)
  %20 = load ptr, ptr %4, align 8, !tbaa !61
  %21 = icmp ne ptr %20, null
  br i1 %21, label %22, label %26

22:                                               ; preds = %15
  %23 = load ptr, ptr %4, align 8, !tbaa !61
  %24 = call ptr @gtk_image_new_from_pixbuf(ptr noundef %23)
  store ptr %24, ptr %2, align 8, !tbaa !13
  %25 = load ptr, ptr %4, align 8, !tbaa !61
  call void @g_object_unref(ptr noundef %25)
  br label %30

26:                                               ; preds = %15
  %27 = call ptr @gtk_label_new(ptr noundef @.str.28)
  %28 = call i64 @gtk_widget_get_type() #9
  %29 = call ptr @g_type_check_instance_cast(ptr noundef %27, i64 noundef %28)
  store ptr %29, ptr %2, align 8, !tbaa !13
  br label %30

30:                                               ; preds = %26, %22
  %31 = load ptr, ptr %2, align 8, !tbaa !13
  %32 = call i64 @gtk_widget_get_type() #9
  %33 = call ptr @g_type_check_instance_cast(ptr noundef %31, i64 noundef %32)
  call void @gtk_widget_set_name(ptr noundef %33, ptr noundef @.str.29)
  %34 = load ptr, ptr %2, align 8, !tbaa !13
  call void @llvm.lifetime.end.p0(i64 8, ptr %4) #8
  call void @llvm.lifetime.end.p0(i64 8, ptr %3) #8
  call void @llvm.lifetime.end.p0(i64 8, ptr %2) #8
  call void @llvm.lifetime.end.p0(i64 4, ptr %1) #8
  ret ptr %34
}