; Function Attrs: nounwind uwtable
define internal fastcc noundef ptr @_get_logo() unnamed_addr #0 {
  %1 = tail call i32 @dt_util_get_logo_season() #7
  %2 = icmp eq i32 %1, 0
  %3 = load ptr, ptr getelementptr inbounds nuw (i8, ptr @darktable, i64 3000), align 8, !tbaa !51
  br i1 %2, label %4, label %6

4:                                                ; preds = %0
  %5 = tail call noalias ptr (ptr, ...) @g_strdup_printf(ptr noundef nonnull @.str.26, ptr noundef %3) #7
  br label %8

6:                                                ; preds = %0
  %7 = tail call noalias ptr (ptr, ...) @g_strdup_printf(ptr noundef nonnull @.str.27, ptr noundef %3, i32 noundef %1) #7
  br label %8

8:                                                ; preds = %6, %4
  %9 = phi ptr [ %5, %4 ], [ %7, %6 ]
  %10 = tail call ptr @gdk_pixbuf_new_from_file_at_size(ptr noundef %9, i32 noundef 250, i32 noundef -1, ptr noundef null) #7
  tail call void @g_free(ptr noundef %9) #7
  %.not = icmp eq ptr %10, null
  br i1 %.not, label %13, label %11

11:                                               ; preds = %8
  %12 = tail call ptr @gtk_image_new_from_pixbuf(ptr noundef nonnull %10) #7
  tail call void @g_object_unref(ptr noundef nonnull %10) #7
  %.pre = tail call i64 @gtk_widget_get_type() #8
  br label %17

13:                                               ; preds = %8
  %14 = tail call ptr @gtk_label_new(ptr noundef nonnull @.str.28) #7
  %15 = tail call i64 @gtk_widget_get_type() #8
  %16 = tail call ptr @g_type_check_instance_cast(ptr noundef %14, i64 noundef %15) #7
  br label %17

17:                                               ; preds = %13, %11
  %.pre-phi = phi i64 [ %15, %13 ], [ %.pre, %11 ]
  %.0 = phi ptr [ %16, %13 ], [ %12, %11 ]
  %18 = tail call ptr @g_type_check_instance_cast(ptr noundef %.0, i64 noundef %.pre-phi) #7
  tail call void @gtk_widget_set_name(ptr noundef %18, ptr noundef nonnull @.str.29) #7
  ret ptr %.0
}